(dp1
S'OriginalConfig'
p2
ccopy_reg
_reconstructor
p3
(cWMCore.Configuration
Configuration
p4
c__builtin__
object
p5
NtRp6
(dp7
S'Site'
p8
g3
(cWMCore.Configuration
ConfigSection
p9
g5
NtRp10
(dp11
S'_internal_skipChecks'
p12
I00
sS'_internal_documentation'
p13
S''
sS'_internal_settings'
p14
c__builtin__
set
p15
((lp16
S'storageSite'
p17
atRp18
sS'_internal_name'
p19
g8
sS'_internal_docstrings'
p20
(dp21
sS'_internal_children'
p22
g15
((ltRp23
sg17
S'T3_CH_CERNBOX'
p24
sS'_internal_parent_ref'
p25
NsbsS'_internal_sections'
p26
(lp27
S'General'
p28
aS'JobType'
p29
aS'Data'
p30
ag8
aS'User'
p31
aS'Debug'
p32
asg28
g3
(g9
g5
NtRp33
(dp34
S'transferLogs'
p35
I01
sg12
I00
sg13
S''
sg14
g15
((lp36
g35
aS'workArea'
p37
aS'requestName'
p38
atRp39
sg19
g28
sg20
(dp40
sg22
g15
((ltRp41
sg38
S'DYJets_NANOv2'
p42
sg25
Nsg37
S'crab_Tprime_v5_NANo_AOD_106X'
p43
sbsS'_internal_webapps'
p44
(lp45
sg31
g3
(g9
g5
NtRp46
(dp47
g12
I00
sg13
S''
sg14
g15
((ltRp48
sg19
g31
sg20
(dp49
sg22
g15
((ltRp50
sg25
NsbsS'_internal_components'
p51
(lp52
sg32
g3
(g9
g5
NtRp53
(dp54
g12
I00
sg13
S''
sg14
g15
((ltRp55
sg19
g32
sg20
(dp56
sg22
g15
((ltRp57
sg25
Nsbsg30
g3
(g9
g5
NtRp58
(dp59
S'inputDataset'
p60
S'/DYJetsToLL_M-50_TuneCP5_13TeV-amcatnloFXFX-pythia8/RunIISummer19UL17NanoAODv2-106X_mc2017_realistic_v8-v1/NANOAODSIM'
p61
sS'outputDatasetTag'
p62
S'DYJetsToLL_M-50_RunIIUL17NanoAODv2'
p63
sg12
I00
sS'splitting'
p64
S'FileBased'
p65
sS'unitsPerJob'
p66
I1
sg13
S''
sg14
g15
((lp67
g60
ag62
aS'totalUnits'
p68
ag66
aS'inputDBS'
p69
ag64
aS'outLFNDirBase'
p70
aS'publication'
p71
atRp72
sg19
g30
sg69
S'global'
p73
sg20
(dp74
sg22
g15
((ltRp75
sg71
I00
sg70
S'/store/user/achhetri/Tprime_v5_NANo_AOD_106X'
p76
sg25
Nsg68
I127
sbsg29
g3
(g9
g5
NtRp77
(dp78
g12
I00
sg13
S''
sg14
g15
((lp79
S'scriptExe'
p80
aS'pluginName'
p81
aS'sendPythonFolder'
p82
aS'allowUndistributedCMSSW'
p83
aS'psetName'
p84
aS'inputFiles'
p85
atRp86
sg19
g29
sg80
S'crab_script_Tprime.sh'
p87
sg20
(dp88
sg82
I01
sg81
S'Analysis'
p89
sg22
g15
((ltRp90
sg83
I01
sg84
S'PSet.py'
p91
sg25
Nsg85
(lp92
S'TprimeBToTH_LH_RunIISummer19UL16_Skimmer.py'
p93
aS'keep_and_drop_v1.txt'
p94
aS'../../../PhysicsTools/NanoAODTools/scripts/haddnano.py'
p95
asbsbsS'voGroup'
p96
S''
sS'Server'
p97
S'cmsweb-k8s-prod.cern.ch'
p98
sS'instance'
p99
S'prod'
p100
sS'RequestName'
p101
V210310_131031:achhetri_crab_DYJets_NANOv2
p102
sS'voRole'
p103
S'NULL'
p104
sS'Port'
p105
S''
s.