(dp1
S'OriginalConfig'
p2
ccopy_reg
_reconstructor
p3
(cWMCore.Configuration
Configuration
p4
c__builtin__
object
p5
NtRp6
(dp7
S'Site'
p8
g3
(cWMCore.Configuration
ConfigSection
p9
g5
NtRp10
(dp11
S'_internal_skipChecks'
p12
I00
sS'_internal_documentation'
p13
S''
sS'_internal_settings'
p14
c__builtin__
set
p15
((lp16
S'storageSite'
p17
atRp18
sS'_internal_name'
p19
g8
sS'_internal_docstrings'
p20
(dp21
sS'_internal_children'
p22
g15
((ltRp23
sg17
S'T3_CH_CERNBOX'
p24
sS'_internal_parent_ref'
p25
NsbsS'_internal_sections'
p26
(lp27
S'General'
p28
aS'JobType'
p29
aS'Data'
p30
ag8
aS'User'
p31
aS'Debug'
p32
asg28
g3
(g9
g5
NtRp33
(dp34
S'transferLogs'
p35
I01
sg12
I00
sg13
S''
sg14
g15
((lp36
g35
aS'workArea'
p37
aS'requestName'
p38
atRp39
sg19
g28
sg20
(dp40
sg22
g15
((ltRp41
sg38
S'TT_to_SemiLeptonic'
p42
sg25
Nsg37
S'crab_Tprime_v5_NANo_AOD_106X'
p43
sbsS'_internal_webapps'
p44
(lp45
sg31
g3
(g9
g5
NtRp46
(dp47
g12
I00
sg13
S''
sg14
g15
((ltRp48
sg19
g31
sg20
(dp49
sg22
g15
((ltRp50
sg25
NsbsS'_internal_components'
p51
(lp52
sg32
g3
(g9
g5
NtRp53
(dp54
g12
I00
sg13
S''
sg14
g15
((ltRp55
sg19
g32
sg20
(dp56
sg22
g15
((ltRp57
sg25
Nsbsg30
g3
(g9
g5
NtRp58
(dp59
S'inputDataset'
p60
S'/TTToSemiLeptonic_TuneCP5_13TeV-powheg-pythia8/RunIISummer19UL17NanoAODv2-106X_mc2017_realistic_v8-v1/NANOAODSIM'
p61
sS'outputDatasetTag'
p62
g42
sg12
I00
sS'splitting'
p63
S'FileBased'
p64
sS'unitsPerJob'
p65
I1
sg13
S''
sg14
g15
((lp66
g60
ag62
aS'publication'
p67
ag65
aS'inputDBS'
p68
ag63
aS'outLFNDirBase'
p69
aS'totalUnits'
p70
atRp71
sg19
g30
sg68
S'global'
p72
sg20
(dp73
sg70
I119
sg22
g15
((ltRp74
sg69
S'/store/user/achhetri/Tprime_v5_NANo_AOD_106X'
p75
sg25
Nsg67
I00
sbsg29
g3
(g9
g5
NtRp76
(dp77
g12
I00
sg13
S''
sg14
g15
((lp78
S'scriptExe'
p79
aS'pluginName'
p80
aS'sendPythonFolder'
p81
aS'allowUndistributedCMSSW'
p82
aS'psetName'
p83
aS'inputFiles'
p84
atRp85
sg19
g29
sg79
S'crab_script_Tprime.sh'
p86
sg20
(dp87
sg81
I01
sg80
S'Analysis'
p88
sg22
g15
((ltRp89
sg82
I01
sg83
S'PSet.py'
p90
sg25
Nsg84
(lp91
S'TprimeBToTH_LH_RunIISummer19UL16_Skimmer.py'
p92
aS'keep_and_drop_v1.txt'
p93
aS'../../../PhysicsTools/NanoAODTools/scripts/haddnano.py'
p94
asbsbsS'voGroup'
p95
S''
sS'Server'
p96
S'cmsweb-k8s-prod.cern.ch'
p97
sS'instance'
p98
S'prod'
p99
sS'RequestName'
p100
V210310_180146:achhetri_crab_TT_to_SemiLeptonic
p101
sS'voRole'
p102
S'NULL'
p103
sS'Port'
p104
S''
s.