ccopy_reg
_reconstructor
p0
(cFWCore.ParameterSet.Config
Process
p1
c__builtin__
object
p2
Ntp3
Rp4
(dp5
S'_Process__sequences'
p6
(dp7
sS'_Process__services'
p8
(dp9
sS'_Process__source'
p10
g0
(cFWCore.ParameterSet.Modules
Source
p11
g2
Ntp12
Rp13
(dp14
S'_Parameterizable__parameterNames'
p15
(lp16
S'fileNames'
p17
asS'_isFrozen'
p18
I00
sS'_isModified'
p19
I01
sS'_lineNumber'
p20
I196
sS'_filename'
p21
S'/cvmfs/cms.cern.ch/slc7_amd64_gcc700/cms/cmssw/CMSSW_10_6_8/python/FWCore/ParameterSet/Modules.py'
p22
sg17
g0
(cFWCore.ParameterSet.Types
vstring
p23
c__builtin__
list
p24
(lp25
S'/store/mc/RunIIAutumn18NanoAODv5/TTJets_TuneCP5_13TeV-madgraphMLM-pythia8/NANOAODSIM/Nano1June2019_102X_upgrade2018_realistic_v19-v1/120000/C435EF5E-BAAB-3945-9252-6049054D9572.root'
p26
atp27
Rp28
(dp29
g18
I00
sS'_ParameterTypeBase__isTracked'
p30
I00
sg19
I01
sS'_nPerLine'
p31
I1
sbsS'_TypedParameterizable__type'
p32
S'PoolSource'
p33
sbsS'_Process__aliases'
p34
(dp35
sS'out'
p36
g0
(cFWCore.ParameterSet.SequenceTypes
EndPath
p37
g2
Ntp38
Rp39
(dp40
g18
I00
sS'_seq'
p41
g0
(cFWCore.ParameterSet.SequenceTypes
_SequenceCollection
p42
g2
Ntp43
Rp44
(dp45
S'_collection'
p46
(lp47
g0
(cFWCore.ParameterSet.Modules
OutputModule
p48
g2
Ntp49
Rp50
(dp51
g15
(lp52
S'fakeNameForCrab'
p53
aS'fileName'
p54
asg18
I00
sg19
I00
sg20
I13
sg21
S'/afs/cern.ch/user/a/achhetri/NANO_AOD/CMSSW_10_6_8/src/WTopScalefactorProducer/Skimmer/NANOcrab/PSet.py'
p55
sg54
g0
(cFWCore.ParameterSet.Types
string
p56
g2
Ntp57
Rp58
(dp59
g18
I00
sg30
I00
sS'_value'
p60
S'tree.root'
p61
sg19
I00
sbsS'_Labelable__label'
p62
S'output'
p63
sg53
g0
(cFWCore.ParameterSet.Types
bool
p64
g2
Ntp65
Rp66
(dp67
g18
I00
sg30
I00
sg60
I01
sg19
I00
sbsg32
S'PoolOutputModule'
p68
sbasbsg62
g36
sg19
I00
sS'_tasks'
p69
g0
(cFWCore.ParameterSet.OrderedSet
OrderedSet
p70
g2
Ntp71
Rp72
(dp73
S'map'
p74
(dp75
sS'end'
p76
(lp77
Nag77
ag77
asbsbsS'_Process__psets'
p78
(dp79
S'maxEvents'
p80
g0
(cFWCore.ParameterSet.Types
PSet
p81
g2
Ntp82
Rp83
(dp84
g18
I00
sg30
I00
sg19
I00
sg15
(lp85
S'input'
p86
asg62
g80
sg86
g0
(cFWCore.ParameterSet.Types
int32
p87
g2
Ntp88
Rp89
(dp90
g18
I00
sg30
I00
sg60
I11
sg19
I00
sbsbssS'_Process__essources'
p91
(dp92
sg33
g13
sg80
g83
sS'source'
p93
g13
sS'_Process__vpsets'
p94
(dp95
sS'_Process__name'
p96
S'NANO'
p97
sS'_Process__subProcesses'
p98
(lp99
sS'_Process__switchproducers'
p100
(dp101
sS'_cloneToObjectDict'
p102
(dp103
I140238518947536
g83
sI140238518947472
g50
sI140238518583376
g39
ssS'_Process__esprefers'
p104
(dp105
sS'_Process__schedule'
p106
Nsg63
g50
sS'_Process__outputmodules'
p107
(dp108
g63
g50
ssS'_Process__analyzers'
p109
(dp110
sS'_Process__InExtendCall'
p111
I00
sS'_Process__modifiers'
p112
(tsS'_Process__producers'
p113
(dp114
sS'_Process__filters'
p115
(dp116
sS'_Process__looper'
p117
NsS'_Process__endpaths'
p118
g0
(cFWCore.ParameterSet.DictTypes
SortedKeysDict
p119
c__builtin__
dict
p120
(dp121
g36
g39
stp122
Rp123
(dp124
S'list'
p125
(lp126
g36
asbsS'_Process__esproducers'
p127
(dp128
sS'_Process__tasks'
p129
(dp130
sS'_Process__paths'
p131
g0
(g119
g120
(dp132
tp133
Rp134
(dp135
g125
(lp136
sbsS'_Process__partialschedules'
p137
(dp138
sS'_Process__isStrict'
p139
I00
sb.